target datalayout = "e-m:e-p270:32:32-p271:32:32-p272:64:64-i64:64-i128:128-f80:128-n8:16:32:64-S128"
target triple = "x86_64-pc-linux-gnu"

%struct.UText = type { i32, i32, i32, i32, i64, i32, i32, i64, i32, i32, ptr, ptr, ptr, ptr, ptr, ptr, ptr, ptr, i64, i32, i32, i64, i32, i32 }
%"class.icu_77::LocalPointer" = type { %"class.icu_77::LocalPointerBase" }
%"class.icu_77::LocalPointerBase" = type { ptr }

; Function Attrs: mustprogress nounwind uwtable
define linkonce_odr void @_ZN6icu_7716LocalPointerBaseINS_22RuleBasedBreakIteratorEED2Ev(ptr noundef nonnull align 8 dereferenceable(8) %0) unnamed_addr #5 comdat align 2 {
  %2 = alloca ptr, align 8
  store ptr %0, ptr %2, align 8, !tbaa !29
  ret void
}

; Function Attrs: inlinehint mustprogress nounwind uwtable
define internal noundef signext i8 @_ZL9U_SUCCESS10UErrorCode(i32 noundef %0) #1 {
  %2 = alloca i32, align 4
  store i32 %0, ptr %2, align 4, !tbaa !15
  %3 = load i32, ptr %2, align 4, !tbaa !15
  %4 = icmp sle i32 %3, 0
  %5 = zext i1 %4 to i8
  ret i8 %5
}

; Function Attrs: mustprogress nounwind uwtable
define linkonce_odr void @_ZN6icu_7716LocalPointerBaseINS_22RuleBasedBreakIteratorEEC2EPS1_(ptr noundef nonnull align 8 dereferenceable(8) %0, ptr noundef %1) unnamed_addr #5 comdat align 2 {
  %3 = alloca ptr, align 8
  %4 = alloca ptr, align 8
  store ptr %0, ptr %3, align 8, !tbaa !29
  store ptr %1, ptr %4, align 8, !tbaa !27
  %5 = load ptr, ptr %3, align 8
  %6 = getelementptr inbounds nuw %"class.icu_77::LocalPointerBase", ptr %5, i32 0, i32 0
  %7 = load ptr, ptr %4, align 8, !tbaa !27
  store ptr %7, ptr %6, align 8, !tbaa !31
  ret void
}

; Function Attrs: mustprogress nounwind uwtable
define linkonce_odr void @_ZN6icu_7712LocalPointerINS_22RuleBasedBreakIteratorEED2Ev(ptr noundef nonnull align 8 dereferenceable(8) %0) unnamed_addr #5 comdat align 2 {
  %2 = alloca ptr, align 8
  store ptr %0, ptr %2, align 8, !tbaa !25
  %3 = load ptr, ptr %2, align 8
  %4 = getelementptr inbounds nuw %"class.icu_77::LocalPointerBase", ptr %3, i32 0, i32 0
  %5 = load ptr, ptr %4, align 8, !tbaa !31
  %6 = icmp eq ptr %5, null
  br i1 %6, label %11, label %7

7:                                                ; preds = %1
  %8 = load ptr, ptr %5, align 8, !tbaa !21
  %9 = getelementptr inbounds ptr, ptr %8, i64 1
  %10 = load ptr, ptr %9, align 8
  call void %10(ptr noundef nonnull align 8 dereferenceable(297) %5) #9
  br label %11

11:                                               ; preds = %7, %1
  call void @_ZN6icu_7716LocalPointerBaseINS_22RuleBasedBreakIteratorEED2Ev(ptr noundef nonnull align 8 dereferenceable(8) %3) #9
  ret void
}

; Function Attrs: mustprogress uwtable
define void @ubrk_setText_77(ptr noundef %0, ptr noundef %1, i32 noundef %2, ptr noundef %3) #0 {
  %5 = alloca ptr, align 8
  %6 = alloca ptr, align 8
  %7 = alloca i32, align 4
  %8 = alloca ptr, align 8
  %9 = alloca %struct.UText, align 8
  store ptr %0, ptr %5, align 8, !tbaa !19
  store ptr %1, ptr %6, align 8, !tbaa !10
  store i32 %2, ptr %7, align 4, !tbaa !12
  store ptr %3, ptr %8, align 8, !tbaa !14
  call void @llvm.lifetime.start.p0(i64 144, ptr %9) #9
  call void @llvm.memset.p0.i64(ptr align 8 %9, i8 0, i64 144, i1 false)
  %10 = getelementptr inbounds %struct.UText, ptr %9, i32 0, i32 0
  store i32 878368812, ptr %10, align 8
  %11 = getelementptr inbounds %struct.UText, ptr %9, i32 0, i32 3
  store i32 144, ptr %11, align 4
  %12 = load ptr, ptr %6, align 8, !tbaa !10
  %13 = load i32, ptr %7, align 4, !tbaa !12
  %14 = sext i32 %13 to i64
  %15 = load ptr, ptr %8, align 8, !tbaa !14
  %16 = call ptr @utext_openUChars_77(ptr noundef %9, ptr noundef %12, i64 noundef %14, ptr noundef %15)
  %17 = load ptr, ptr %5, align 8, !tbaa !19
  %18 = load ptr, ptr %8, align 8, !tbaa !14
  %19 = load ptr, ptr %17, align 8, !tbaa !21
  %20 = getelementptr inbounds ptr, ptr %19, i64 8
  %21 = load ptr, ptr %20, align 8
  call void %21(ptr noundef nonnull align 8 dereferenceable(32) %17, ptr noundef %9, ptr noundef nonnull align 4 dereferenceable(4) %18)
  call void @llvm.lifetime.end.p0(i64 144, ptr %9) #9
  ret void
}

; Function Attrs: mustprogress nounwind uwtable
define linkonce_odr noundef ptr @_ZN6icu_7716LocalPointerBaseINS_22RuleBasedBreakIteratorEE6orphanEv(ptr noundef nonnull align 8 dereferenceable(8) %0) #5 comdat align 2 {
  %2 = alloca ptr, align 8
  %3 = alloca ptr, align 8
  store ptr %0, ptr %2, align 8, !tbaa !29
  %4 = load ptr, ptr %2, align 8
  call void @llvm.lifetime.start.p0(i64 8, ptr %3) #9
  %5 = getelementptr inbounds nuw %"class.icu_77::LocalPointerBase", ptr %4, i32 0, i32 0
  %6 = load ptr, ptr %5, align 8, !tbaa !31
  store ptr %6, ptr %3, align 8, !tbaa !27
  %7 = getelementptr inbounds nuw %"class.icu_77::LocalPointerBase", ptr %4, i32 0, i32 0
  store ptr null, ptr %7, align 8, !tbaa !31
  %8 = load ptr, ptr %3, align 8, !tbaa !27
  call void @llvm.lifetime.end.p0(i64 8, ptr %3) #9
  ret ptr %8
}

; Function Attrs: mustprogress uwtable
define linkonce_odr void @_ZN6icu_7712LocalPointerINS_22RuleBasedBreakIteratorEEC2EPS1_R10UErrorCode(ptr noundef nonnull align 8 dereferenceable(8) %0, ptr noundef %1, ptr noundef nonnull align 4 dereferenceable(4) %2) unnamed_addr #0 comdat align 2 {
  %4 = alloca ptr, align 8
  %5 = alloca ptr, align 8
  %6 = alloca ptr, align 8
  store ptr %0, ptr %4, align 8, !tbaa !25
  store ptr %1, ptr %5, align 8, !tbaa !27
  store ptr %2, ptr %6, align 8, !tbaa !14
  %7 = load ptr, ptr %4, align 8
  %8 = load ptr, ptr %5, align 8, !tbaa !27
  call void @_ZN6icu_7716LocalPointerBaseINS_22RuleBasedBreakIteratorEEC2EPS1_(ptr noundef nonnull align 8 dereferenceable(8) %7, ptr noundef %8)
  %9 = load ptr, ptr %5, align 8, !tbaa !27
  %10 = icmp eq ptr %9, null
  br i1 %10, label %11, label %18

11:                                               ; preds = %3
  %12 = load ptr, ptr %6, align 8, !tbaa !14
  %13 = load i32, ptr %12, align 4, !tbaa !15
  %14 = call noundef signext i8 @_ZL9U_SUCCESS10UErrorCode(i32 noundef %13)
  %15 = icmp ne i8 %14, 0
  br i1 %15, label %16, label %18

16:                                               ; preds = %11
  %17 = load ptr, ptr %6, align 8, !tbaa !14
  store i32 7, ptr %17, align 4, !tbaa !15
  br label %18

18:                                               ; preds = %16, %11, %3
  ret void
}

; Function Attrs: inlinehint mustprogress nounwind uwtable
define internal noundef signext i8 @_ZL9U_FAILURE10UErrorCode(i32 noundef %0) #1 {
  %2 = alloca i32, align 4
  store i32 %0, ptr %2, align 4, !tbaa !15
  %3 = load i32, ptr %2, align 4, !tbaa !15
  %4 = icmp sgt i32 %3, 0
  %5 = zext i1 %4 to i8
  ret i8 %5
}

; Function Attrs: mustprogress uwtable
define ptr @ubrk_openBinaryRules_77(ptr noundef %0, i32 noundef %1, ptr noundef %2, i32 noundef %3, ptr noundef %4) #0 personality ptr @__gxx_personality_v0 {
  %6 = alloca ptr, align 8
  %7 = alloca ptr, align 8
  %8 = alloca i32, align 4
  %9 = alloca ptr, align 8
  %10 = alloca i32, align 4
  %11 = alloca ptr, align 8
  %12 = alloca %"class.icu_77::LocalPointer", align 8
  %13 = alloca ptr, align 8
  %14 = alloca i1, align 1
  %15 = alloca ptr, align 8
  %16 = alloca i32, align 4
  %17 = alloca i32, align 4
  %18 = alloca ptr, align 8
  store ptr %0, ptr %7, align 8, !tbaa !7
  store i32 %1, ptr %8, align 4, !tbaa !12
  store ptr %2, ptr %9, align 8, !tbaa !10
  store i32 %3, ptr %10, align 4, !tbaa !12
  store ptr %4, ptr %11, align 8, !tbaa !14
  %19 = load ptr, ptr %11, align 8, !tbaa !14
  %20 = load i32, ptr %19, align 4, !tbaa !15
  %21 = call noundef signext i8 @_ZL9U_FAILURE10UErrorCode(i32 noundef %20)
  %22 = icmp ne i8 %21, 0
  br i1 %22, label %23, label %24

23:                                               ; preds = %5
  store ptr null, ptr %6, align 8
  br label %78

24:                                               ; preds = %5
  %25 = load i32, ptr %8, align 4, !tbaa !12
  %26 = icmp slt i32 %25, 0
  br i1 %26, label %27, label %29

27:                                               ; preds = %24
  %28 = load ptr, ptr %11, align 8, !tbaa !14
  store i32 1, ptr %28, align 4, !tbaa !15
  store ptr null, ptr %6, align 8
  br label %78

29:                                               ; preds = %24
  call void @llvm.lifetime.start.p0(i64 8, ptr %12) #9
  %30 = call noundef ptr @_ZN6icu_777UMemorynwEm(i64 noundef 304) #9
  %31 = icmp eq ptr %30, null
  store i1 false, ptr %14, align 1
  br i1 %31, label %37, label %32

32:                                               ; preds = %29
  store ptr %30, ptr %13, align 8
  store i1 true, ptr %14, align 1
  %33 = load ptr, ptr %7, align 8, !tbaa !7
  %34 = load i32, ptr %8, align 4, !tbaa !12
  %35 = load ptr, ptr %11, align 8, !tbaa !14
  invoke void @_ZN6icu_7722RuleBasedBreakIteratorC1EPKhjR10UErrorCode(ptr noundef nonnull align 8 dereferenceable(297) %30, ptr noundef %33, i32 noundef %34, ptr noundef nonnull align 4 dereferenceable(4) %35)
          to label %36 unwind label %46

36:                                               ; preds = %32
  br label %37

37:                                               ; preds = %36, %29
  %38 = phi ptr [ %30, %36 ], [ null, %29 ]
  %39 = load ptr, ptr %11, align 8, !tbaa !14
  call void @_ZN6icu_7712LocalPointerINS_22RuleBasedBreakIteratorEEC2EPS1_R10UErrorCode(ptr noundef nonnull align 8 dereferenceable(8) %12, ptr noundef %38, ptr noundef nonnull align 4 dereferenceable(4) %39)
  %40 = load ptr, ptr %11, align 8, !tbaa !14
  %41 = load i32, ptr %40, align 4, !tbaa !15
  %42 = invoke noundef signext i8 @_ZL9U_FAILURE10UErrorCode(i32 noundef %41)
          to label %43 unwind label %54

43:                                               ; preds = %37
  %44 = icmp ne i8 %42, 0
  br i1 %44, label %45, label %58

45:                                               ; preds = %43
  store ptr null, ptr %6, align 8
  store i32 1, ptr %17, align 4
  br label %75

46:                                               ; preds = %32
  %47 = landingpad { ptr, i32 }
          cleanup
  %48 = extractvalue { ptr, i32 } %47, 0
  store ptr %48, ptr %15, align 8
  %49 = extractvalue { ptr, i32 } %47, 1
  store i32 %49, ptr %16, align 4
  %50 = load i1, ptr %14, align 1
  br i1 %50, label %51, label %53

51:                                               ; preds = %46
  %52 = load ptr, ptr %13, align 8
  call void @_ZN6icu_777UMemorydlEPv(ptr noundef %52) #9
  br label %53

53:                                               ; preds = %51, %46
  br label %77

54:                                               ; preds = %37
  %55 = landingpad { ptr, i32 }
          cleanup
  %56 = extractvalue { ptr, i32 } %55, 0
  store ptr %56, ptr %15, align 8
  %57 = extractvalue { ptr, i32 } %55, 1
  store i32 %57, ptr %16, align 4
  br label %76

58:                                               ; preds = %43
  call void @llvm.lifetime.start.p0(i64 8, ptr %18) #9
  %59 = invoke noundef ptr @_ZN6icu_7716LocalPointerBaseINS_22RuleBasedBreakIteratorEE6orphanEv(ptr noundef nonnull align 8 dereferenceable(8) %12)
          to label %60 unwind label %69

60:                                               ; preds = %58
  store ptr %59, ptr %18, align 8, !tbaa !19
  %61 = load ptr, ptr %9, align 8, !tbaa !10
  %62 = icmp ne ptr %61, null
  br i1 %62, label %63, label %73

63:                                               ; preds = %60
  %64 = load ptr, ptr %18, align 8, !tbaa !19
  %65 = load ptr, ptr %9, align 8, !tbaa !10
  %66 = load i32, ptr %10, align 4, !tbaa !12
  %67 = load ptr, ptr %11, align 8, !tbaa !14
  invoke void @ubrk_setText_77(ptr noundef %64, ptr noundef %65, i32 noundef %66, ptr noundef %67)
          to label %68 unwind label %69

68:                                               ; preds = %63
  br label %73

69:                                               ; preds = %63, %58
  %70 = landingpad { ptr, i32 }
          cleanup
  %71 = extractvalue { ptr, i32 } %70, 0
  store ptr %71, ptr %15, align 8
  %72 = extractvalue { ptr, i32 } %70, 1
  store i32 %72, ptr %16, align 4
  call void @llvm.lifetime.end.p0(i64 8, ptr %18) #9
  br label %76

73:                                               ; preds = %68, %60
  %74 = load ptr, ptr %18, align 8, !tbaa !19
  store ptr %74, ptr %6, align 8
  store i32 1, ptr %17, align 4
  call void @llvm.lifetime.end.p0(i64 8, ptr %18) #9
  br label %75

75:                                               ; preds = %73, %45
  call void @_ZN6icu_7712LocalPointerINS_22RuleBasedBreakIteratorEED2Ev(ptr noundef nonnull align 8 dereferenceable(8) %12) #9
  call void @llvm.lifetime.end.p0(i64 8, ptr %12) #9
  br label %78

76:                                               ; preds = %69, %54
  call void @_ZN6icu_7712LocalPointerINS_22RuleBasedBreakIteratorEED2Ev(ptr noundef nonnull align 8 dereferenceable(8) %12) #9
  br label %77

77:                                               ; preds = %76, %53
  call void @llvm.lifetime.end.p0(i64 8, ptr %12) #9
  br label %80

78:                                               ; preds = %75, %27, %23
  %79 = load ptr, ptr %6, align 8
  ret ptr %79

80:                                               ; preds = %77
  %81 = load ptr, ptr %15, align 8
  %82 = load i32, ptr %16, align 4
  %83 = insertvalue { ptr, i32 } poison, ptr %81, 0
  %84 = insertvalue { ptr, i32 } %83, i32 %82, 1
  resume { ptr, i32 } %84
}