; Function Attrs: mustprogress uwtable
define noundef ptr @ubrk_openBinaryRules_77(ptr noundef %0, i32 noundef %1, ptr noundef %2, i32 noundef %3, ptr noundef %4) local_unnamed_addr #0 personality ptr @__gxx_personality_v0 {
  %6 = alloca %struct.UText, align 8
  %7 = load i32, ptr %4, align 4, !tbaa !3
  %8 = icmp slt i32 %7, 1
  br i1 %8, label %9, label %_ZN6icu_7712LocalPointerINS_22RuleBasedBreakIteratorEED2Ev.exit27

9:                                                ; preds = %5
  %10 = icmp slt i32 %1, 0
  br i1 %10, label %11, label %12

11:                                               ; preds = %9
  store i32 1, ptr %4, align 4, !tbaa !3
  br label %_ZN6icu_7712LocalPointerINS_22RuleBasedBreakIteratorEED2Ev.exit27

12:                                               ; preds = %9
  %13 = tail call noundef ptr @_ZN6icu_777UMemorynwEm(i64 noundef 304) #8
  %14 = icmp eq ptr %13, null
  br i1 %14, label %16, label %15

15:                                               ; preds = %12
  invoke void @_ZN6icu_7722RuleBasedBreakIteratorC1EPKhjR10UErrorCode(ptr noundef nonnull align 8 dereferenceable(297) %13, ptr noundef %0, i32 noundef %1, ptr noundef nonnull align 4 dereferenceable(4) %4)
          to label %_ZN6icu_7712LocalPointerINS_22RuleBasedBreakIteratorEEC2EPS1_R10UErrorCode.exit unwind label %21

16:                                               ; preds = %12
  %17 = load i32, ptr %4, align 4
  %18 = icmp sgt i32 %17, 0
  br i1 %18, label %_ZN6icu_7712LocalPointerINS_22RuleBasedBreakIteratorEED2Ev.exit27, label %19

19:                                               ; preds = %16
  store i32 7, ptr %4, align 4, !tbaa !3
  br label %_ZN6icu_7712LocalPointerINS_22RuleBasedBreakIteratorEED2Ev.exit27

_ZN6icu_7712LocalPointerINS_22RuleBasedBreakIteratorEEC2EPS1_R10UErrorCode.exit: ; preds = %15
  %.pre = load i32, ptr %4, align 4, !tbaa !3
  %20 = icmp slt i32 %.pre, 1
  br i1 %20, label %23, label %30

21:                                               ; preds = %15
  %22 = landingpad { ptr, i32 }
          cleanup
  tail call void @_ZN6icu_777UMemorydlEPv(ptr noundef nonnull %13) #8
  resume { ptr, i32 } %22

23:                                               ; preds = %_ZN6icu_7712LocalPointerINS_22RuleBasedBreakIteratorEEC2EPS1_R10UErrorCode.exit
  %.not24 = icmp eq ptr %2, null
  br i1 %.not24, label %_ZN6icu_7712LocalPointerINS_22RuleBasedBreakIteratorEED2Ev.exit27, label %.noexc

.noexc:                                           ; preds = %23
  call void @llvm.lifetime.start.p0(i64 144, ptr nonnull %6) #8
  call void @llvm.memset.p0.i64(ptr noundef nonnull align 8 dereferenceable(144) %6, i8 0, i64 144, i1 false)
  store i32 878368812, ptr %6, align 8
  %24 = getelementptr inbounds nuw i8, ptr %6, i64 12
  store i32 144, ptr %24, align 4
  %25 = sext i32 %3 to i64
  %26 = call ptr @utext_openUChars_77(ptr noundef nonnull %6, ptr noundef nonnull %2, i64 noundef %25, ptr noundef nonnull %4)
  %27 = load ptr, ptr %13, align 8, !tbaa !7
  %28 = getelementptr inbounds nuw i8, ptr %27, i64 64
  %29 = load ptr, ptr %28, align 8
  call void %29(ptr noundef nonnull align 8 dereferenceable(32) %13, ptr noundef nonnull %6, ptr noundef nonnull align 4 dereferenceable(4) %4)
  call void @llvm.lifetime.end.p0(i64 144, ptr nonnull %6) #8
  br label %_ZN6icu_7712LocalPointerINS_22RuleBasedBreakIteratorEED2Ev.exit27

30:                                               ; preds = %_ZN6icu_7712LocalPointerINS_22RuleBasedBreakIteratorEEC2EPS1_R10UErrorCode.exit
  %31 = load ptr, ptr %13, align 8, !tbaa !7
  %32 = getelementptr inbounds nuw i8, ptr %31, i64 8
  %33 = load ptr, ptr %32, align 8
  tail call void %33(ptr noundef nonnull align 8 dereferenceable(297) %13) #8
  br label %_ZN6icu_7712LocalPointerINS_22RuleBasedBreakIteratorEED2Ev.exit27

_ZN6icu_7712LocalPointerINS_22RuleBasedBreakIteratorEED2Ev.exit27: ; preds = %16, %19, %.noexc, %23, %30, %5, %11
  %.0 = phi ptr [ null, %11 ], [ null, %5 ], [ null, %30 ], [ %13, %23 ], [ %13, %.noexc ], [ null, %19 ], [ null, %16 ]
  ret ptr %.0
}